target datalayout = "e-m:e-p270:32:32-p271:32:32-p272:64:64-i64:64-i128:128-f80:128-n8:16:32:64-S128"
target triple = "x86_64-pc-linux-gnu"

%class.ForceHelperBuffers = type { i8, %"class.std::vector", %"class.std::vector" }
%"class.std::vector" = type { %"struct.std::_Vector_base" }
%"struct.std::_Vector_base" = type { %"struct.std::_Vector_base<gmx::BasicVector<float>, std::allocator<gmx::BasicVector<float>>>::_Vector_impl" }
%"struct.std::_Vector_base<gmx::BasicVector<float>, std::allocator<gmx::BasicVector<float>>>::_Vector_impl" = type { %"struct.std::_Vector_base<gmx::BasicVector<float>, std::allocator<gmx::BasicVector<float>>>::_Vector_impl_data" }
%"struct.std::_Vector_base<gmx::BasicVector<float>, std::allocator<gmx::BasicVector<float>>>::_Vector_impl_data" = type { ptr, ptr, ptr }
%"class.std::vector.3" = type { %"struct.std::_Vector_base.4" }
%"struct.std::_Vector_base.4" = type { %"struct.std::_Vector_base<float, std::allocator<float>>::_Vector_impl" }
%"struct.std::_Vector_base<float, std::allocator<float>>::_Vector_impl" = type { %"struct.std::_Vector_base<float, std::allocator<float>>::_Vector_impl_data" }
%"struct.std::_Vector_base<float, std::allocator<float>>::_Vector_impl_data" = type { ptr, ptr, ptr }
%"class.__gnu_cxx::__normal_iterator.150" = type { ptr }
%struct.t_forcerec = type { %"class.std::unique_ptr", i32, i8, i32, %"class.std::vector", %"class.std::vector", i8, i8, i32, i32, i32, i32, float, %"struct.std::array", %"struct.std::array", %"struct.std::array", %"class.std::unique_ptr.43", float, %"class.std::unique_ptr.51", i32, %"class.std::vector.59", %"class.std::vector.64", %"class.std::vector", %"class.std::unique_ptr.69", %"class.std::unique_ptr.77", i32, %"class.std::vector.85", i32, i32, %"class.std::vector.90", ptr, i32, i32, i8, %"class.std::vector.3", %"class.std::vector.3", ptr, float, i32, float, i32, i32, i32, i32, float, float, float, float, %"class.std::unique_ptr.95", %"class.std::vector.103", %"class.std::unique_ptr.108", %"class.std::unique_ptr.116", ptr, ptr, ptr, %"class.std::unique_ptr.124", %"struct.gmx::EnumerationArray.132", %"struct.gmx::EnumerationArray.141" }
%"class.std::unique_ptr" = type { %"struct.std::__uniq_ptr_data" }
%"struct.std::__uniq_ptr_data" = type { %"class.std::__uniq_ptr_impl" }
%"class.std::__uniq_ptr_impl" = type { %"class.std::tuple" }
%"class.std::tuple" = type { %"struct.std::_Tuple_impl" }
%"struct.std::_Tuple_impl" = type { %"struct.std::_Head_base.42" }
%"struct.std::_Head_base.42" = type { ptr }
%"struct.std::array" = type { [2 x double] }
%"class.std::unique_ptr.43" = type { %"struct.std::__uniq_ptr_data.44" }
%"struct.std::__uniq_ptr_data.44" = type { %"class.std::__uniq_ptr_impl.45" }
%"class.std::__uniq_ptr_impl.45" = type { %"class.std::tuple.46" }
%"class.std::tuple.46" = type { %"struct.std::_Tuple_impl.47" }
%"struct.std::_Tuple_impl.47" = type { %"struct.std::_Head_base.50" }
%"struct.std::_Head_base.50" = type { ptr }
%"class.std::unique_ptr.51" = type { %"struct.std::__uniq_ptr_data.52" }
%"struct.std::__uniq_ptr_data.52" = type { %"class.std::__uniq_ptr_impl.53" }
%"class.std::__uniq_ptr_impl.53" = type { %"class.std::tuple.54" }
%"class.std::tuple.54" = type { %"struct.std::_Tuple_impl.55" }
%"struct.std::_Tuple_impl.55" = type { %"struct.std::_Head_base.58" }
%"struct.std::_Head_base.58" = type { ptr }
%"class.std::vector.59" = type { %"struct.std::_Vector_base.60" }
%"struct.std::_Vector_base.60" = type { %"struct.std::_Vector_base<gmx::AtomInfoWithinMoleculeBlock, std::allocator<gmx::AtomInfoWithinMoleculeBlock>>::_Vector_impl" }
%"struct.std::_Vector_base<gmx::AtomInfoWithinMoleculeBlock, std::allocator<gmx::AtomInfoWithinMoleculeBlock>>::_Vector_impl" = type { %"struct.std::_Vector_base<gmx::AtomInfoWithinMoleculeBlock, std::allocator<gmx::AtomInfoWithinMoleculeBlock>>::_Vector_impl_data" }
%"struct.std::_Vector_base<gmx::AtomInfoWithinMoleculeBlock, std::allocator<gmx::AtomInfoWithinMoleculeBlock>>::_Vector_impl_data" = type { ptr, ptr, ptr }
%"class.std::vector.64" = type { %"struct.std::_Vector_base.65" }
%"struct.std::_Vector_base.65" = type { %"struct.std::_Vector_base<int, std::allocator<int>>::_Vector_impl" }
%"struct.std::_Vector_base<int, std::allocator<int>>::_Vector_impl" = type { %"struct.std::_Vector_base<int, std::allocator<int>>::_Vector_impl_data" }
%"struct.std::_Vector_base<int, std::allocator<int>>::_Vector_impl_data" = type { ptr, ptr, ptr }
%"class.std::unique_ptr.69" = type { %"struct.std::__uniq_ptr_data.70" }
%"struct.std::__uniq_ptr_data.70" = type { %"class.std::__uniq_ptr_impl.71" }
%"class.std::__uniq_ptr_impl.71" = type { %"class.std::tuple.72" }
%"class.std::tuple.72" = type { %"struct.std::_Tuple_impl.73" }
%"struct.std::_Tuple_impl.73" = type { %"struct.std::_Head_base.76" }
%"struct.std::_Head_base.76" = type { ptr }
%"class.std::unique_ptr.77" = type { %"struct.std::__uniq_ptr_data.78" }
%"struct.std::__uniq_ptr_data.78" = type { %"class.std::__uniq_ptr_impl.79" }
%"class.std::__uniq_ptr_impl.79" = type { %"class.std::tuple.80" }
%"class.std::tuple.80" = type { %"struct.std::_Tuple_impl.81" }
%"struct.std::_Tuple_impl.81" = type { %"struct.std::_Head_base.84" }
%"struct.std::_Head_base.84" = type { ptr }
%"class.std::vector.85" = type { %"struct.std::_Vector_base.86" }
%"struct.std::_Vector_base.86" = type { %"struct.std::_Vector_base<std::vector<std::unique_ptr<t_forcetable>>, std::allocator<std::vector<std::unique_ptr<t_forcetable>>>>::_Vector_impl" }
%"struct.std::_Vector_base<std::vector<std::unique_ptr<t_forcetable>>, std::allocator<std::vector<std::unique_ptr<t_forcetable>>>>::_Vector_impl" = type { %"struct.std::_Vector_base<std::vector<std::unique_ptr<t_forcetable>>, std::allocator<std::vector<std::unique_ptr<t_forcetable>>>>::_Vector_impl_data" }
%"struct.std::_Vector_base<std::vector<std::unique_ptr<t_forcetable>>, std::allocator<std::vector<std::unique_ptr<t_forcetable>>>>::_Vector_impl_data" = type { ptr, ptr, ptr }
%"class.std::vector.90" = type { %"struct.std::_Vector_base.91" }
%"struct.std::_Vector_base.91" = type { %"struct.std::_Vector_base<ForceHelperBuffers, std::allocator<ForceHelperBuffers>>::_Vector_impl" }
%"struct.std::_Vector_base<ForceHelperBuffers, std::allocator<ForceHelperBuffers>>::_Vector_impl" = type { %"struct.std::_Vector_base<ForceHelperBuffers, std::allocator<ForceHelperBuffers>>::_Vector_impl_data" }
%"struct.std::_Vector_base<ForceHelperBuffers, std::allocator<ForceHelperBuffers>>::_Vector_impl_data" = type { ptr, ptr, ptr }
%"class.std::unique_ptr.95" = type { %"struct.std::__uniq_ptr_data.96" }
%"struct.std::__uniq_ptr_data.96" = type { %"class.std::__uniq_ptr_impl.97" }
%"class.std::__uniq_ptr_impl.97" = type { %"class.std::tuple.98" }
%"class.std::tuple.98" = type { %"struct.std::_Tuple_impl.99" }
%"struct.std::_Tuple_impl.99" = type { %"struct.std::_Head_base.102" }
%"struct.std::_Head_base.102" = type { ptr }
%"class.std::vector.103" = type { %"struct.std::_Vector_base.104" }
%"struct.std::_Vector_base.104" = type { %"struct.std::_Vector_base<ListedForces, std::allocator<ListedForces>>::_Vector_impl" }
%"struct.std::_Vector_base<ListedForces, std::allocator<ListedForces>>::_Vector_impl" = type { %"struct.std::_Vector_base<ListedForces, std::allocator<ListedForces>>::_Vector_impl_data" }
%"struct.std::_Vector_base<ListedForces, std::allocator<ListedForces>>::_Vector_impl_data" = type { ptr, ptr, ptr }
%"class.std::unique_ptr.108" = type { %"struct.std::__uniq_ptr_data.109" }
%"struct.std::__uniq_ptr_data.109" = type { %"class.std::__uniq_ptr_impl.110" }
%"class.std::__uniq_ptr_impl.110" = type { %"class.std::tuple.111" }
%"class.std::tuple.111" = type { %"struct.std::_Tuple_impl.112" }
%"struct.std::_Tuple_impl.112" = type { %"struct.std::_Head_base.115" }
%"struct.std::_Head_base.115" = type { ptr }
%"class.std::unique_ptr.116" = type { %"struct.std::__uniq_ptr_data.117" }
%"struct.std::__uniq_ptr_data.117" = type { %"class.std::__uniq_ptr_impl.118" }
%"class.std::__uniq_ptr_impl.118" = type { %"class.std::tuple.119" }
%"class.std::tuple.119" = type { %"struct.std::_Tuple_impl.120" }
%"struct.std::_Tuple_impl.120" = type { %"struct.std::_Head_base.123" }
%"struct.std::_Head_base.123" = type { ptr }
%"class.std::unique_ptr.124" = type { %"struct.std::__uniq_ptr_data.125" }
%"struct.std::__uniq_ptr_data.125" = type { %"class.std::__uniq_ptr_impl.126" }
%"class.std::__uniq_ptr_impl.126" = type { %"class.std::tuple.127" }
%"class.std::tuple.127" = type { %"struct.std::_Tuple_impl.128" }
%"struct.std::_Tuple_impl.128" = type { %"struct.std::_Head_base.131" }
%"struct.std::_Head_base.131" = type { ptr }
%"struct.gmx::EnumerationArray.132" = type { [3 x %"class.std::unique_ptr.133"] }
%"class.std::unique_ptr.133" = type { %"struct.std::__uniq_ptr_data.134" }
%"struct.std::__uniq_ptr_data.134" = type { %"class.std::__uniq_ptr_impl.135" }
%"class.std::__uniq_ptr_impl.135" = type { %"class.std::tuple.136" }
%"class.std::tuple.136" = type { %"struct.std::_Tuple_impl.137" }
%"struct.std::_Tuple_impl.137" = type { %"struct.std::_Head_base.140" }
%"struct.std::_Head_base.140" = type { ptr }
%"struct.gmx::EnumerationArray.141" = type { [2 x %"class.std::unique_ptr.142"] }
%"class.std::unique_ptr.142" = type { %"struct.std::__uniq_ptr_data.143" }
%"struct.std::__uniq_ptr_data.143" = type { %"class.std::__uniq_ptr_impl.144" }
%"class.std::__uniq_ptr_impl.144" = type { %"class.std::tuple.145" }
%"class.std::tuple.145" = type { %"struct.std::_Tuple_impl.146" }
%"struct.std::_Tuple_impl.146" = type { %"struct.std::_Head_base.149" }
%"struct.std::_Head_base.149" = type { ptr }

; Function Attrs: mustprogress nounwind uwtable
define linkonce_odr noundef nonnull align 8 dereferenceable(8) ptr @_ZNK9__gnu_cxx17__normal_iteratorIP18ForceHelperBuffersSt6vectorIS1_SaIS1_EEE4baseEv(ptr noundef nonnull align 8 dereferenceable(8) %0) #2 comdat align 2 {
  %2 = alloca ptr, align 8
  store ptr %0, ptr %2, align 8, !tbaa !239
  %3 = load ptr, ptr %2, align 8
  %4 = getelementptr inbounds nuw %"class.__gnu_cxx::__normal_iterator.150", ptr %3, i32 0, i32 0
  ret ptr %4
}

; Function Attrs: mustprogress nounwind uwtable
define linkonce_odr void @_ZN9__gnu_cxx17__normal_iteratorIP18ForceHelperBuffersSt6vectorIS1_SaIS1_EEEC2ERKS2_(ptr noundef nonnull align 8 dereferenceable(8) %0, ptr noundef nonnull align 8 dereferenceable(8) %1) unnamed_addr #2 comdat align 2 {
  %3 = alloca ptr, align 8
  %4 = alloca ptr, align 8
  store ptr %0, ptr %3, align 8, !tbaa !239
  store ptr %1, ptr %4, align 8, !tbaa !243
  %5 = load ptr, ptr %3, align 8
  %6 = getelementptr inbounds nuw %"class.__gnu_cxx::__normal_iterator.150", ptr %5, i32 0, i32 0
  %7 = load ptr, ptr %4, align 8, !tbaa !243
  %8 = load ptr, ptr %7, align 8, !tbaa !34
  store ptr %8, ptr %6, align 8, !tbaa !241
  ret void
}

; Function Attrs: mustprogress nounwind uwtable
define linkonce_odr noundef nonnull align 8 dereferenceable(8) ptr @_ZN9__gnu_cxx17__normal_iteratorIP18ForceHelperBuffersSt6vectorIS1_SaIS1_EEEppEv(ptr noundef nonnull align 8 dereferenceable(8) %0) #2 comdat align 2 {
  %2 = alloca ptr, align 8
  store ptr %0, ptr %2, align 8, !tbaa !239
  %3 = load ptr, ptr %2, align 8
  %4 = getelementptr inbounds nuw %"class.__gnu_cxx::__normal_iterator.150", ptr %3, i32 0, i32 0
  %5 = load ptr, ptr %4, align 8, !tbaa !241
  %6 = getelementptr inbounds nuw %class.ForceHelperBuffers, ptr %5, i32 1
  store ptr %6, ptr %4, align 8, !tbaa !241
  ret ptr %3
}

; Function Attrs: mustprogress uwtable
define void @_ZN18ForceHelperBuffers6resizeEi(ptr noundef nonnull align 8 dereferenceable(56) %0, i32 noundef %1) #3 align 2 {
  %3 = alloca ptr, align 8
  %4 = alloca i32, align 4
  store ptr %0, ptr %3, align 8, !tbaa !34
  store i32 %1, ptr %4, align 4, !tbaa !70
  %5 = load ptr, ptr %3, align 8
  %6 = getelementptr inbounds nuw %class.ForceHelperBuffers, ptr %5, i32 0, i32 0
  %7 = load i8, ptr %6, align 8, !tbaa !40, !range !38, !noundef !39
  %8 = trunc i8 %7 to i1
  br i1 %8, label %9, label %13

9:                                                ; preds = %2
  %10 = getelementptr inbounds nuw %class.ForceHelperBuffers, ptr %5, i32 0, i32 1
  %11 = load i32, ptr %4, align 4, !tbaa !70
  %12 = sext i32 %11 to i64
  call void @_ZNSt6vectorIN3gmx11BasicVectorIfEESaIS2_EE6resizeEm(ptr noundef nonnull align 8 dereferenceable(24) %10, i64 noundef %12)
  br label %13

13:                                               ; preds = %9, %2
  ret void
}

; Function Attrs: mustprogress nounwind uwtable
define linkonce_odr noundef nonnull align 8 dereferenceable(56) ptr @_ZNK9__gnu_cxx17__normal_iteratorIP18ForceHelperBuffersSt6vectorIS1_SaIS1_EEEdeEv(ptr noundef nonnull align 8 dereferenceable(8) %0) #2 comdat align 2 {
  %2 = alloca ptr, align 8
  store ptr %0, ptr %2, align 8, !tbaa !239
  %3 = load ptr, ptr %2, align 8
  %4 = getelementptr inbounds nuw %"class.__gnu_cxx::__normal_iterator.150", ptr %3, i32 0, i32 0
  %5 = load ptr, ptr %4, align 8, !tbaa !241
  ret ptr %5
}

; Function Attrs: inlinehint mustprogress nounwind uwtable
define linkonce_odr noundef zeroext i1 @_ZN9__gnu_cxxneIP18ForceHelperBuffersSt6vectorIS1_SaIS1_EEEEbRKNS_17__normal_iteratorIT_T0_EESB_(ptr noundef nonnull align 8 dereferenceable(8) %0, ptr noundef nonnull align 8 dereferenceable(8) %1) #4 comdat {
  %3 = alloca ptr, align 8
  %4 = alloca ptr, align 8
  store ptr %0, ptr %3, align 8, !tbaa !239
  store ptr %1, ptr %4, align 8, !tbaa !239
  %5 = load ptr, ptr %3, align 8, !tbaa !239
  %6 = call noundef nonnull align 8 dereferenceable(8) ptr @_ZNK9__gnu_cxx17__normal_iteratorIP18ForceHelperBuffersSt6vectorIS1_SaIS1_EEE4baseEv(ptr noundef nonnull align 8 dereferenceable(8) %5) #5
  %7 = load ptr, ptr %6, align 8, !tbaa !34
  %8 = load ptr, ptr %4, align 8, !tbaa !239
  %9 = call noundef nonnull align 8 dereferenceable(8) ptr @_ZNK9__gnu_cxx17__normal_iteratorIP18ForceHelperBuffersSt6vectorIS1_SaIS1_EEE4baseEv(ptr noundef nonnull align 8 dereferenceable(8) %8) #5
  %10 = load ptr, ptr %9, align 8, !tbaa !34
  %11 = icmp ne ptr %7, %10
  ret i1 %11
}

; Function Attrs: mustprogress nounwind uwtable
define linkonce_odr ptr @_ZNSt6vectorI18ForceHelperBuffersSaIS0_EE3endEv(ptr noundef nonnull align 8 dereferenceable(24) %0) #2 comdat align 2 {
  %2 = alloca %"class.__gnu_cxx::__normal_iterator.150", align 8
  %3 = alloca ptr, align 8
  store ptr %0, ptr %3, align 8, !tbaa !237
  %4 = load ptr, ptr %3, align 8
  %5 = getelementptr inbounds nuw %"struct.std::_Vector_base.91", ptr %4, i32 0, i32 0
  %6 = getelementptr inbounds nuw %"struct.std::_Vector_base<ForceHelperBuffers, std::allocator<ForceHelperBuffers>>::_Vector_impl_data", ptr %5, i32 0, i32 1
  call void @_ZN9__gnu_cxx17__normal_iteratorIP18ForceHelperBuffersSt6vectorIS1_SaIS1_EEEC2ERKS2_(ptr noundef nonnull align 8 dereferenceable(8) %2, ptr noundef nonnull align 8 dereferenceable(8) %6) #5
  %7 = getelementptr inbounds nuw %"class.__gnu_cxx::__normal_iterator.150", ptr %2, i32 0, i32 0
  %8 = load ptr, ptr %7, align 8
  ret ptr %8
}

; Function Attrs: mustprogress nounwind uwtable
define linkonce_odr ptr @_ZNSt6vectorI18ForceHelperBuffersSaIS0_EE5beginEv(ptr noundef nonnull align 8 dereferenceable(24) %0) #2 comdat align 2 {
  %2 = alloca %"class.__gnu_cxx::__normal_iterator.150", align 8
  %3 = alloca ptr, align 8
  store ptr %0, ptr %3, align 8, !tbaa !237
  %4 = load ptr, ptr %3, align 8
  %5 = getelementptr inbounds nuw %"struct.std::_Vector_base.91", ptr %4, i32 0, i32 0
  %6 = getelementptr inbounds nuw %"struct.std::_Vector_base<ForceHelperBuffers, std::allocator<ForceHelperBuffers>>::_Vector_impl_data", ptr %5, i32 0, i32 0
  call void @_ZN9__gnu_cxx17__normal_iteratorIP18ForceHelperBuffersSt6vectorIS1_SaIS1_EEEC2ERKS2_(ptr noundef nonnull align 8 dereferenceable(8) %2, ptr noundef nonnull align 8 dereferenceable(8) %6) #5
  %7 = getelementptr inbounds nuw %"class.__gnu_cxx::__normal_iterator.150", ptr %2, i32 0, i32 0
  %8 = load ptr, ptr %7, align 8
  ret ptr %8
}

; Function Attrs: mustprogress uwtable
define void @_Z19forcerec_set_rangesP10t_forcereciii(ptr noundef %0, i32 noundef %1, i32 noundef %2, i32 noundef %3) #3 {
  %5 = alloca ptr, align 8
  %6 = alloca i32, align 4
  %7 = alloca i32, align 4
  %8 = alloca i32, align 4
  %9 = alloca ptr, align 8
  %10 = alloca %"class.__gnu_cxx::__normal_iterator.150", align 8
  %11 = alloca %"class.__gnu_cxx::__normal_iterator.150", align 8
  %12 = alloca ptr, align 8
  store ptr %0, ptr %5, align 8, !tbaa !129
  store i32 %1, ptr %6, align 4, !tbaa !70
  store i32 %2, ptr %7, align 4, !tbaa !70
  store i32 %3, ptr %8, align 4, !tbaa !70
  %13 = load i32, ptr %6, align 4, !tbaa !70
  %14 = load ptr, ptr %5, align 8, !tbaa !129
  %15 = getelementptr inbounds nuw %struct.t_forcerec, ptr %14, i32 0, i32 27
  store i32 %13, ptr %15, align 8, !tbaa !131
  %16 = load i32, ptr %7, align 4, !tbaa !70
  %17 = load ptr, ptr %5, align 8, !tbaa !129
  %18 = getelementptr inbounds nuw %struct.t_forcerec, ptr %17, i32 0, i32 28
  store i32 %16, ptr %18, align 4, !tbaa !236
  call void @llvm.lifetime.start.p0(i64 8, ptr %9) #5
  %19 = load ptr, ptr %5, align 8, !tbaa !129
  %20 = getelementptr inbounds nuw %struct.t_forcerec, ptr %19, i32 0, i32 29
  store ptr %20, ptr %9, align 8, !tbaa !237
  call void @llvm.lifetime.start.p0(i64 8, ptr %10) #5
  %21 = load ptr, ptr %9, align 8, !tbaa !237
  %22 = call ptr @_ZNSt6vectorI18ForceHelperBuffersSaIS0_EE5beginEv(ptr noundef nonnull align 8 dereferenceable(24) %21) #5
  %23 = getelementptr inbounds nuw %"class.__gnu_cxx::__normal_iterator.150", ptr %10, i32 0, i32 0
  store ptr %22, ptr %23, align 8
  call void @llvm.lifetime.start.p0(i64 8, ptr %11) #5
  %24 = load ptr, ptr %9, align 8, !tbaa !237
  %25 = call ptr @_ZNSt6vectorI18ForceHelperBuffersSaIS0_EE3endEv(ptr noundef nonnull align 8 dereferenceable(24) %24) #5
  %26 = getelementptr inbounds nuw %"class.__gnu_cxx::__normal_iterator.150", ptr %11, i32 0, i32 0
  store ptr %25, ptr %26, align 8
  br label %27

27:                                               ; preds = %34, %4
  %28 = call noundef zeroext i1 @_ZN9__gnu_cxxneIP18ForceHelperBuffersSt6vectorIS1_SaIS1_EEEEbRKNS_17__normal_iteratorIT_T0_EESB_(ptr noundef nonnull align 8 dereferenceable(8) %10, ptr noundef nonnull align 8 dereferenceable(8) %11) #5
  br i1 %28, label %30, label %29

29:                                               ; preds = %27
  call void @llvm.lifetime.end.p0(i64 8, ptr %11) #5
  call void @llvm.lifetime.end.p0(i64 8, ptr %10) #5
  call void @llvm.lifetime.end.p0(i64 8, ptr %9) #5
  br label %36

30:                                               ; preds = %27
  call void @llvm.lifetime.start.p0(i64 8, ptr %12) #5
  %31 = call noundef nonnull align 8 dereferenceable(56) ptr @_ZNK9__gnu_cxx17__normal_iteratorIP18ForceHelperBuffersSt6vectorIS1_SaIS1_EEEdeEv(ptr noundef nonnull align 8 dereferenceable(8) %10) #5
  store ptr %31, ptr %12, align 8, !tbaa !34
  %32 = load ptr, ptr %12, align 8, !tbaa !34
  %33 = load i32, ptr %8, align 4, !tbaa !70
  call void @_ZN18ForceHelperBuffers6resizeEi(ptr noundef nonnull align 8 dereferenceable(56) %32, i32 noundef %33)
  call void @llvm.lifetime.end.p0(i64 8, ptr %12) #5
  br label %34

34:                                               ; preds = %30
  %35 = call noundef nonnull align 8 dereferenceable(8) ptr @_ZN9__gnu_cxx17__normal_iteratorIP18ForceHelperBuffersSt6vectorIS1_SaIS1_EEEppEv(ptr noundef nonnull align 8 dereferenceable(8) %10) #5
  br label %27

36:                                               ; preds = %29
  ret void
}