; Function Attrs: mustprogress uwtable
define void @_Z19forcerec_set_rangesP10t_forcereciii(ptr noundef captures(none) initializes((296, 304)) %0, i32 noundef %1, i32 noundef %2, i32 noundef %3) local_unnamed_addr #1 {
  %5 = getelementptr inbounds nuw i8, ptr %0, i64 296
  store i32 %1, ptr %5, align 8, !tbaa !52
  %6 = getelementptr inbounds nuw i8, ptr %0, i64 300
  store i32 %2, ptr %6, align 4, !tbaa !159
  %7 = getelementptr inbounds nuw i8, ptr %0, i64 304
  %8 = load ptr, ptr %7, align 8, !tbaa !160
  %9 = getelementptr inbounds nuw i8, ptr %0, i64 312
  %10 = load ptr, ptr %9, align 8, !tbaa !160
  %.not11 = icmp eq ptr %8, %10
  br i1 %.not11, label %._crit_edge, label %.lr.ph

.lr.ph:                                           ; preds = %4
  %11 = sext i32 %3 to i64
  br label %12

._crit_edge:                                      ; preds = %_ZN18ForceHelperBuffers6resizeEi.exit, %4
  ret void

12:                                               ; preds = %.lr.ph, %_ZN18ForceHelperBuffers6resizeEi.exit
  %.sroa.08.012 = phi ptr [ %8, %.lr.ph ], [ %17, %_ZN18ForceHelperBuffers6resizeEi.exit ]
  %13 = load i8, ptr %.sroa.08.012, align 8, !tbaa !16, !range !34, !noundef !35
  %14 = trunc nuw i8 %13 to i1
  br i1 %14, label %15, label %_ZN18ForceHelperBuffers6resizeEi.exit

15:                                               ; preds = %12
  %16 = getelementptr inbounds nuw i8, ptr %.sroa.08.012, i64 8
  tail call void @_ZNSt6vectorIN3gmx11BasicVectorIfEESaIS2_EE6resizeEm(ptr noundef nonnull align 8 dereferenceable(24) %16, i64 noundef %11)
  br label %_ZN18ForceHelperBuffers6resizeEi.exit

_ZN18ForceHelperBuffers6resizeEi.exit:            ; preds = %12, %15
  %17 = getelementptr inbounds nuw i8, ptr %.sroa.08.012, i64 56
  %.not = icmp eq ptr %17, %10
  br i1 %.not, label %._crit_edge, label %12
}